; Function Attrs: nounwind uwtable
define dso_local zeroext i1 @brin_can_do_samepage_update(i32 noundef %0, i64 noundef %1, i64 noundef %2) local_unnamed_addr #0 {
  %.not = icmp ugt i64 %2, %1
  br i1 %.not, label %4, label %21

4:                                                ; preds = %3
  %5 = icmp slt i32 %0, 0
  br i1 %5, label %6, label %12

6:                                                ; preds = %4
  %7 = load ptr, ptr @LocalBufferBlockPointers, align 8
  %8 = xor i32 %0, -1
  %9 = zext nneg i32 %8 to i64
  %10 = getelementptr inbounds nuw ptr, ptr %7, i64 %9
  %11 = load ptr, ptr %10, align 8
  br label %BufferGetPage.exit

12:                                               ; preds = %4
  %13 = load ptr, ptr @BufferBlocks, align 8
  %14 = add nsw i32 %0, -1
  %15 = sext i32 %14 to i64
  %16 = shl nsw i64 %15, 13
  %17 = getelementptr inbounds nuw i8, ptr %13, i64 %16
  br label %BufferGetPage.exit

BufferGetPage.exit:                               ; preds = %6, %12
  %.0.i.i = phi ptr [ %11, %6 ], [ %17, %12 ]
  %18 = tail call i64 @PageGetExactFreeSpace(ptr noundef %.0.i.i) #5
  %19 = sub nuw i64 %2, %1
  %20 = icmp uge i64 %18, %19
  br label %21

21:                                               ; preds = %BufferGetPage.exit, %3
  %22 = phi i1 [ true, %3 ], [ %20, %BufferGetPage.exit ]
  ret i1 %22
}